; Function Attrs: mustprogress uwtable
define void @_Z18buildPmeGpuProgramRK13DeviceContext(ptr dead_on_unwind noalias nocapture writable writeonly sret(%"class.std::unique_ptr.2") align 8 %0, ptr noundef nonnull align 8 dereferenceable(8) %1) local_unnamed_addr #0 personality ptr @__gxx_personality_v0 {
  tail call void @llvm.experimental.noalias.scope.decl(metadata !8)
  %3 = tail call noalias noundef nonnull dereferenceable(8) ptr @_Znwm(i64 noundef 8) #8, !noalias !8
  invoke void @_ZN13PmeGpuProgramC1ERK13DeviceContext(ptr noundef nonnull align 8 dereferenceable(8) %3, ptr noundef nonnull align 8 dereferenceable(8) %1)
          to label %_ZSt11make_uniqueI13PmeGpuProgramJRK13DeviceContextEENSt8__detail9_MakeUniqIT_E15__single_objectEDpOT0_.exit unwind label %4, !noalias !8

4:                                                ; preds = %2
  %5 = landingpad { ptr, i32 }
          cleanup
  tail call void @_ZdlPv(ptr noundef nonnull %3) #9, !noalias !8
  resume { ptr, i32 } %5

_ZSt11make_uniqueI13PmeGpuProgramJRK13DeviceContextEENSt8__detail9_MakeUniqIT_E15__single_objectEDpOT0_.exit: ; preds = %2
  store ptr %3, ptr %0, align 8, !alias.scope !8
  ret void
}